; Function Attrs: mustprogress uwtable
define void @_ZN10open_spiel12crazy_eights16CrazyEightsState13DoApplyActionEl(ptr noundef nonnull align 8 dereferenceable(392) %0, i64 noundef %1) unnamed_addr #3 align 2 personality ptr @__gxx_personality_v0 {
  %3 = alloca %"class.std::__cxx11::basic_string", align 8
  %4 = alloca %"class.std::allocator", align 1
  %5 = alloca %"class.std::__cxx11::basic_string", align 8
  %6 = alloca %"class.std::allocator", align 1
  %7 = getelementptr inbounds nuw i8, ptr %0, i64 60
  %8 = load i32, ptr %7, align 4
  switch i32 %8, label %20 [
    i32 0, label %9
    i32 1, label %11
    i32 2, label %13
  ]

9:                                                ; preds = %2
  %10 = trunc i64 %1 to i32
  tail call void @_ZN10open_spiel12crazy_eights16CrazyEightsState15ApplyDealActionEi(ptr noundef nonnull align 8 dereferenceable(392) %0, i32 noundef %10)
  br label %27

11:                                               ; preds = %2
  %12 = trunc i64 %1 to i32
  tail call void @_ZN10open_spiel12crazy_eights16CrazyEightsState15ApplyPlayActionEi(ptr noundef nonnull align 8 dereferenceable(392) %0, i32 noundef %12)
  br label %27

13:                                               ; preds = %2
  call void @_ZNSaIcEC1Ev(ptr noundef nonnull align 1 dereferenceable(1) %4) #25
  invoke void @_ZNSt7__cxx1112basic_stringIcSt11char_traitsIcESaIcEEC2IS3_EEPKcRKS3_(ptr noundef nonnull align 8 dereferenceable(32) %3, ptr noundef nonnull @.str.65, ptr noundef nonnull align 1 dereferenceable(1) %4)
          to label %14 unwind label %16

14:                                               ; preds = %13
  invoke void @_ZN10open_spiel15SpielFatalErrorERKNSt7__cxx1112basic_stringIcSt11char_traitsIcESaIcEEE(ptr noundef nonnull align 8 dereferenceable(32) %3) #24
          to label %15 unwind label %18

15:                                               ; preds = %14
  unreachable

16:                                               ; preds = %13
  %17 = landingpad { ptr, i32 }
          cleanup
  br label %28

18:                                               ; preds = %14
  %19 = landingpad { ptr, i32 }
          cleanup
  call void @_ZNSt7__cxx1112basic_stringIcSt11char_traitsIcESaIcEED1Ev(ptr noundef nonnull align 8 dereferenceable(32) %3) #25
  br label %28

20:                                               ; preds = %2
  call void @_ZNSaIcEC1Ev(ptr noundef nonnull align 1 dereferenceable(1) %6) #25
  invoke void @_ZNSt7__cxx1112basic_stringIcSt11char_traitsIcESaIcEEC2IS3_EEPKcRKS3_(ptr noundef nonnull align 8 dereferenceable(32) %5, ptr noundef nonnull @.str.66, ptr noundef nonnull align 1 dereferenceable(1) %6)
          to label %21 unwind label %23

21:                                               ; preds = %20
  invoke void @_ZN10open_spiel15SpielFatalErrorERKNSt7__cxx1112basic_stringIcSt11char_traitsIcESaIcEEE(ptr noundef nonnull align 8 dereferenceable(32) %5) #24
          to label %22 unwind label %25

22:                                               ; preds = %21
  unreachable

23:                                               ; preds = %20
  %24 = landingpad { ptr, i32 }
          cleanup
  br label %28

25:                                               ; preds = %21
  %26 = landingpad { ptr, i32 }
          cleanup
  call void @_ZNSt7__cxx1112basic_stringIcSt11char_traitsIcESaIcEED1Ev(ptr noundef nonnull align 8 dereferenceable(32) %5) #25
  br label %28

27:                                               ; preds = %11, %9
  ret void

28:                                               ; preds = %23, %25, %16, %18
  %.sink = phi ptr [ %4, %18 ], [ %4, %16 ], [ %6, %25 ], [ %6, %23 ]
  %.pn8.pn = phi { ptr, i32 } [ %19, %18 ], [ %17, %16 ], [ %26, %25 ], [ %24, %23 ]
  call void @_ZNSaIcED1Ev(ptr noundef nonnull align 1 dereferenceable(1) %.sink) #25
  resume { ptr, i32 } %.pn8.pn
}